(lp0
(icookielib
Cookie
p1
(dp2
S'comment'
p3
NsS'domain'
p4
S'.login.sina.com.cn'
p5
sS'name'
p6
S'ALC'
p7
sS'domain_initial_dot'
p8
I00
sS'expires'
p9
I1467025030
sS'value'
p10
S'ac%3D0%26bt%3D1435489030%26cv%3D5.0%26et%3D1467025030%26uid%3D1502371603%26vf%3D0%26vt%3D0%26es%3Dd0ac32f14f4d4ce9e13f46dd35f9a695'
p11
sS'domain_specified'
p12
I01
sS'_rest'
p13
(dp14
S'httponly'
p15
NssS'version'
p16
I0
sS'port_specified'
p17
I00
sS'rfc2109'
p18
I00
sS'discard'
p19
I00
sS'path_specified'
p20
I01
sS'path'
p21
S'/'
p22
sS'port'
p23
NsS'comment_url'
p24
NsS'secure'
p25
I00
sba(icookielib
Cookie
p26
(dp27
g3
Nsg4
S'.login.sina.com.cn'
p28
sg6
S'LT'
p29
sg8
I00
sg9
Nsg10
S'1435489030'
p30
sg12
I01
sg13
(dp31
sg16
I0
sg17
I00
sg18
I00
sg19
I01
sg20
I01
sg21
g22
sg23
Nsg24
Nsg25
I00
sba(icookielib
Cookie
p32
(dp33
g3
Nsg4
S'.login.sina.com.cn'
p34
sg6
S'tgc'
p35
sg8
I00
sg9
Nsg10
S'TGT-MTUwMjM3MTYwMw==-1435489030-gz-800155A9CE99728A5533BDD277BCED55'
p36
sg12
I01
sg13
(dp37
S'Httponly'
p38
Nssg16
I0
sg17
I00
sg18
I00
sg19
I01
sg20
I01
sg21
g22
sg23
Nsg24
Nsg25
I00
sba(icookielib
Cookie
p39
(dp40
g3
Nsg4
S'.sina.com.cn'
p41
sg6
S'ALF'
p42
sg8
I01
sg9
I1467025030
sg10
S'1467025030'
p43
sg12
I01
sg13
(dp44
sg16
I0
sg17
I00
sg18
I00
sg19
I00
sg20
I01
sg21
g22
sg23
Nsg24
Nsg25
I00
sba(icookielib
Cookie
p45
(dp46
g3
Nsg4
S'.sina.com.cn'
p47
sg6
S'SUB'
p48
sg8
I01
sg9
Nsg10
S'_2A254i6NWDeTxGedL61AS9y_Kyz-IHXVb4JOerDV_PUNbuNBeLXLCkW-KBkBdb-GQ95dxhxc7KfKdg3PUhw..'
p49
sg12
I01
sg13
(dp50
S'httponly'
p51
Nssg16
I0
sg17
I00
sg18
I00
sg19
I01
sg20
I01
sg21
g22
sg23
Nsg24
Nsg25
I00
sba(icookielib
Cookie
p52
(dp53
g3
Nsg4
S'.sina.com.cn'
p54
sg6
S'SUBP'
p55
sg8
I01
sg9
I1467025030
sg10
S'0033WrSXqPxfM725Ws9jqgMF55529P9D9WFumffH0zR2We9rl0pJeMLz'
p56
sg12
I01
sg13
(dp57
sg16
I0
sg17
I00
sg18
I00
sg19
I00
sg20
I01
sg21
g22
sg23
Nsg24
Nsg25
I00
sba(icookielib
Cookie
p58
(dp59
g3
Nsg4
S'.sina.com.cn'
p60
sg6
S'SUE'
p61
sg8
I01
sg9
Nsg10
S'es%3De521a2dd553c3605c6af224210380fda%26ev%3Dv1%26es2%3D80f5017c859833a53387016d516c30ec%26rs0%3DnR7HzeQ6EjUmpzhqsEUA3U6U8cxbbkABKjwJsq2hhntqs2OdaOyopsJBebuwqSobUpd%252BFx%252BPCsC8QcdlLwXUMk%252BLYTeOUqINAFquOwx1cd9fgvIlonhHC%252BtnXCArpModts29DYkGjQE3ZboCoqHp90eF%252BakHfpDiDB1tAptsLaE%253D%26rv%3D0'
p62
sg12
I01
sg13
(dp63
S'Httponly'
p64
Nssg16
I0
sg17
I00
sg18
I00
sg19
I01
sg20
I01
sg21
g22
sg23
Nsg24
Nsg25
I00
sba(icookielib
Cookie
p65
(dp66
g3
Nsg4
S'.sina.com.cn'
p67
sg6
S'SUP'
p68
sg8
I01
sg9
Nsg10
S'cv%3D1%26bt%3D1435489030%26et%3D1435575430%26d%3D40c3%26i%3Dd5db%26us%3D1%26vf%3D0%26vt%3D0%26ac%3D0%26st%3D0%26lt%3D1%26uid%3D1502371603%26user%3Dburkun%26ag%3D2%26name%3Dburkun%26nick%3Dburkun%26sex%3D%26ps%3D0%26email%3D%26dob%3D%26ln%3Dburkun%26os%3D%26fmp%3D%26lcp%3D2012-02-29%252013%253A18%253A39'
p69
sg12
I01
sg13
(dp70
sg16
I0
sg17
I00
sg18
I00
sg19
I01
sg20
I01
sg21
g22
sg23
Nsg24
Nsg25
I00
sba(icookielib
Cookie
p71
(dp72
g3
Nsg4
S'.sina.com.cn'
p73
sg6
S'SUS'
p74
sg8
I01
sg9
Nsg10
S'SID-1502371603-1435489030-GZ-c2lqr-44650cd5648a808e6b6f8961e419d5db'
p75
sg12
I01
sg13
(dp76
S'httponly'
p77
Nssg16
I0
sg17
I00
sg18
I00
sg19
I01
sg20
I01
sg21
g22
sg23
Nsg24
Nsg25
I00
sba(icookielib
Cookie
p78
(dp79
g3
Nsg4
S'.sina.com.cn'
p80
sg6
S'sso_info'
p81
sg8
I01
sg9
I1467111430
sg10
S'v02m6alo5qztaKdl4mrnZa4pp2WpaSPk4S1jIOIs42zhLaMg4zA'
p82
sg12
I01
sg13
(dp83
sg16
I0
sg17
I00
sg18
I00
sg19
I00
sg20
I01
sg21
g22
sg23
Nsg24
Nsg25
I00
sba(icookielib
Cookie
p84
(dp85
g3
Nsg4
S'.weibo.com'
p86
sg6
S'ALF'
p87
sg8
I01
sg9
I1467025030
sg10
S'1467025030'
p88
sg12
I01
sg13
(dp89
sg16
I0
sg17
I00
sg18
I00
sg19
I00
sg20
I01
sg21
g22
sg23
Nsg24
Nsg25
I00
sba(icookielib
Cookie
p90
(dp91
g3
Nsg4
S'.weibo.com'
p92
sg6
S'SUB'
p93
sg8
I01
sg9
Nsg10
S'_2A254i6NWDeTxGedL61AS9y_Kyz-IHXVb4JOerDV8PUNbuNANLUj2kW9F1ZegStbrrBATV9i-86SoxpLY4w..'
p94
sg12
I01
sg13
(dp95
S'httponly'
p96
Nssg16
I0
sg17
I00
sg18
I00
sg19
I01
sg20
I01
sg21
g22
sg23
Nsg24
Nsg25
I00
sba(icookielib
Cookie
p97
(dp98
g3
Nsg4
S'.weibo.com'
p99
sg6
S'SUBP'
p100
sg8
I01
sg9
I1467025030
sg10
S'0033WrSXqPxfM725Ws9jqgMF55529P9D9WFumffH0zR2We9rl0pJeMLz5JpX5K2t'
p101
sg12
I01
sg13
(dp102
sg16
I0
sg17
I00
sg18
I00
sg19
I00
sg20
I01
sg21
g22
sg23
Nsg24
Nsg25
I00
sba(icookielib
Cookie
p103
(dp104
g3
Nsg4
S'.weibo.com'
p105
sg6
S'SUE'
p106
sg8
I01
sg9
Nsg10
S'es%3Db1a1599de867ca443b4d0dde72c68a31%26ev%3Dv1%26es2%3De22ab2946aef941bdbd2bf403830277f%26rs0%3Dw2u%252BwHRqSdY7Htws3SdMrIFeRlz0T3FtpT8AGbABM3j0%252Fr5%252B8SlPFB13%252B8sy2QFP27P1dJZFzXtyFN6kYHpCwDnAC2xRqtob7QtBClVrXf%252FborGhIT%252FwSD60w8UmEKo3BQSaOhBpx6GRtpzhnR%252BL8oqBAUFX81OOgB278%252BvUdsg%253D%26rv%3D0'
p107
sg12
I01
sg13
(dp108
S'Httponly'
p109
Nssg16
I0
sg17
I00
sg18
I00
sg19
I01
sg20
I01
sg21
g22
sg23
Nsg24
Nsg25
I00
sba(icookielib
Cookie
p110
(dp111
g3
Nsg4
S'.weibo.com'
p112
sg6
S'SUHB'
p113
sg8
I01
sg9
I1467025030
sg10
S'06ZEjV2gkYVzfs'
p114
sg12
I01
sg13
(dp115
sg16
I0
sg17
I00
sg18
I00
sg19
I00
sg20
I01
sg21
g22
sg23
Nsg24
Nsg25
I00
sba(icookielib
Cookie
p116
(dp117
g3
Nsg4
S'.weibo.com'
p118
sg6
S'SUP'
p119
sg8
I01
sg9
Nsg10
S'cv%3D1%26bt%3D1435489030%26et%3D1435575430%26d%3Dc909%26i%3Daa31%26us%3D1%26vf%3D0%26vt%3D0%26ac%3D0%26st%3D0%26uid%3D1502371603%26name%3Dburkun%26nick%3Dburkun%26fmp%3D%26lcp%3D2012-02-29%252013%253A18%253A39'
p120
sg12
I01
sg13
(dp121
sg16
I0
sg17
I00
sg18
I00
sg19
I01
sg20
I01
sg21
g22
sg23
Nsg24
Nsg25
I00
sba(icookielib
Cookie
p122
(dp123
g3
Nsg4
S'.weibo.com'
p124
sg6
S'SUS'
p125
sg8
I01
sg9
Nsg10
S'SID-1502371603-1435489030-JA-a7ixt-aa5934802fa24bf0328ce0411f54d5db'
p126
sg12
I01
sg13
(dp127
S'httponly'
p128
Nssg16
I0
sg17
I00
sg18
I00
sg19
I01
sg20
I01
sg21
g22
sg23
Nsg24
Nsg25
I00
sba(icookielib
Cookie
p129
(dp130
g3
Nsg4
S'.weibo.com'
p131
sg6
S'wvr'
p132
sg8
I01
sg9
I1436093830
sg10
S'6'
p133
sg12
I01
sg13
(dp134
sg16
I0
sg17
I00
sg18
I00
sg19
I00
sg20
I01
sg21
g22
sg23
Nsg24
Nsg25
I00
sba(icookielib
Cookie
p135
(dp136
g3
Nsg4
Vweibo.com
p137
sg6
S'YF-Ugrow-G0'
p138
sg8
I00
sg9
Nsg10
S'ad06784f6deda07eea88e095402e4243'
p139
sg12
I00
sg13
(dp140
sg16
I0
sg17
I00
sg18
I00
sg19
I01
sg20
I01
sg21
g22
sg23
Nsg24
Nsg25
I00
sba(icookielib
Cookie
p141
(dp142
g3
Nsg4
S'weibo.com'
p143
sg6
S'YF-V5-G0'
p144
sg8
I00
sg9
Nsg10
S'5f9bd778c31f9e6f413e97a1d464047a'
p145
sg12
I00
sg13
(dp146
sg16
I0
sg17
I00
sg18
I00
sg19
I01
sg20
I01
sg21
g22
sg23
Nsg24
Nsg25
I00
sba.